; Function Attrs: mustprogress nounwind uwtable
define dso_local void @_ZN17b3FixedConstraintD0Ev(ptr noundef nonnull align 16 dereferenceable(112) %this) unnamed_addr #4 align 2 personality ptr @__gxx_personality_v0 {
entry:
  store ptr getelementptr inbounds ({ [10 x ptr] }, ptr @_ZTV17b3TypedConstraint, i64 0, i32 0, i64 2), ptr %this, align 16
  invoke void @_Z21b3AlignedFreeInternalPv(ptr noundef nonnull %this)
          to label %_ZN17b3TypedConstraintdlEPv.exit unwind label %terminate.lpad.i

terminate.lpad.i:                                 ; preds = %entry
  %0 = landingpad { ptr, i32 }
          catch ptr null
  %1 = extractvalue { ptr, i32 } %0, 0
  tail call void @__clang_call_terminate(ptr %1) #13
  unreachable

_ZN17b3TypedConstraintdlEPv.exit:                 ; preds = %entry
  ret void
}